target datalayout = "e-m:e-p270:32:32-p271:32:32-p272:64:64-i64:64-i128:128-f80:128-n8:16:32:64-S128"
target triple = "x86_64-pc-linux-gnu"

%struct._zend_file_handle = type { %union.anon, ptr, ptr, i8, i8, i8, ptr, i64 }
%union.anon = type { %struct._zend_stream }
%struct._zend_stream = type { ptr, i32, ptr, ptr, ptr }

@zend_stream_open_function = external global ptr, align 8
@zend_fopen = external global ptr, align 8

; Function Attrs: nounwind uwtable
define dso_local i32 @zend_stream_open(ptr noundef %0) #0 {
  %2 = alloca i32, align 4
  %3 = alloca ptr, align 8
  %4 = alloca ptr, align 8
  %5 = alloca i32, align 4
  store ptr %0, ptr %3, align 8, !tbaa !4
  call void @llvm.lifetime.start.p0(i64 8, ptr %4) #13
  %6 = load ptr, ptr %3, align 8, !tbaa !4
  %7 = getelementptr inbounds nuw %struct._zend_file_handle, ptr %6, i32 0, i32 3
  %8 = load i8, ptr %7, align 8, !tbaa !13
  %9 = zext i8 %8 to i32
  %10 = icmp eq i32 %9, 0
  call void @llvm.assume(i1 %10)
  %11 = load ptr, ptr @zend_stream_open_function, align 8, !tbaa !25
  %12 = icmp ne ptr %11, null
  br i1 %12, label %13, label %17

13:                                               ; preds = %1
  %14 = load ptr, ptr @zend_stream_open_function, align 8, !tbaa !25
  %15 = load ptr, ptr %3, align 8, !tbaa !4
  %16 = call i32 %14(ptr noundef %15)
  store i32 %16, ptr %2, align 4
  store i32 1, ptr %5, align 4
  br label %33

17:                                               ; preds = %1
  %18 = load ptr, ptr @zend_fopen, align 8, !tbaa !25
  %19 = load ptr, ptr %3, align 8, !tbaa !4
  %20 = getelementptr inbounds nuw %struct._zend_file_handle, ptr %19, i32 0, i32 1
  %21 = load ptr, ptr %20, align 8, !tbaa !19
  %22 = call ptr %18(ptr noundef %21, ptr noundef %4)
  %23 = load ptr, ptr %3, align 8, !tbaa !4
  %24 = getelementptr inbounds nuw %struct._zend_file_handle, ptr %23, i32 0, i32 0
  store ptr %22, ptr %24, align 8, !tbaa !18
  %25 = load ptr, ptr %3, align 8, !tbaa !4
  %26 = getelementptr inbounds nuw %struct._zend_file_handle, ptr %25, i32 0, i32 0
  %27 = load ptr, ptr %26, align 8, !tbaa !18
  %28 = icmp ne ptr %27, null
  br i1 %28, label %30, label %29

29:                                               ; preds = %17
  store i32 -1, ptr %2, align 4
  store i32 1, ptr %5, align 4
  br label %33

30:                                               ; preds = %17
  %31 = load ptr, ptr %3, align 8, !tbaa !4
  %32 = getelementptr inbounds nuw %struct._zend_file_handle, ptr %31, i32 0, i32 3
  store i8 1, ptr %32, align 8, !tbaa !13
  store i32 0, ptr %2, align 4
  store i32 1, ptr %5, align 4
  br label %33

33:                                               ; preds = %30, %29, %13
  call void @llvm.lifetime.end.p0(i64 8, ptr %4) #13
  %34 = load i32, ptr %2, align 4
  ret i32 %34
}