; Function Attrs: nounwind uwtable
define dso_local i32 @zend_stream_open(ptr noundef %0) local_unnamed_addr #0 {
  %2 = alloca ptr, align 8
  call void @llvm.lifetime.start.p0(i64 8, ptr nonnull %2) #16
  %3 = getelementptr inbounds nuw i8, ptr %0, i64 56
  %4 = load i8, ptr %3, align 8, !tbaa !4
  %5 = icmp eq i8 %4, 0
  tail call void @llvm.assume(i1 %5)
  %6 = load ptr, ptr @zend_stream_open_function, align 8, !tbaa !21
  %.not = icmp eq ptr %6, null
  br i1 %.not, label %9, label %7

7:                                                ; preds = %1
  %8 = tail call i32 %6(ptr noundef nonnull %0) #16
  br label %15

9:                                                ; preds = %1
  %10 = load ptr, ptr @zend_fopen, align 8, !tbaa !21
  %11 = getelementptr inbounds nuw i8, ptr %0, i64 40
  %12 = load ptr, ptr %11, align 8, !tbaa !20
  %13 = call ptr %10(ptr noundef %12, ptr noundef nonnull %2) #16
  store ptr %13, ptr %0, align 8, !tbaa !13
  %.not7 = icmp eq ptr %13, null
  br i1 %.not7, label %15, label %14

14:                                               ; preds = %9
  store i8 1, ptr %3, align 8, !tbaa !4
  br label %15

15:                                               ; preds = %9, %14, %7
  %.0 = phi i32 [ %8, %7 ], [ 0, %14 ], [ -1, %9 ]
  call void @llvm.lifetime.end.p0(i64 8, ptr nonnull %2) #16
  ret i32 %.0
}